; Function Attrs: mustprogress uwtable
define hidden void @_ZN4ncnn24cast_bfloat16_to_float32ERKNS_3MatERS0_RKNS_6OptionE(ptr noundef nonnull align 8 dereferenceable(72) %0, ptr noundef nonnull align 8 dereferenceable(72) %1, ptr noundef nonnull align 8 dereferenceable(64) %2) local_unnamed_addr #0 personality ptr @__gxx_personality_v0 {
  %4 = alloca %"class.ncnn::ParamDict", align 8
  %5 = tail call noundef ptr @_ZN4ncnn12create_layerEi(i32 noundef 64)
  call void @llvm.lifetime.start.p0(i64 16, ptr nonnull %4) #12
  call void @_ZN4ncnn9ParamDictC1Ev(ptr noundef nonnull align 8 dereferenceable(16) %4)
  invoke void @_ZN4ncnn9ParamDict3setEii(ptr noundef nonnull align 8 dereferenceable(16) %4, i32 noundef 0, i32 noundef 4)
          to label %6 unwind label %31

6:                                                ; preds = %3
  invoke void @_ZN4ncnn9ParamDict3setEii(ptr noundef nonnull align 8 dereferenceable(16) %4, i32 noundef 1, i32 noundef 1)
          to label %7 unwind label %31

7:                                                ; preds = %6
  %8 = load ptr, ptr %5, align 8, !tbaa !31
  %9 = getelementptr inbounds nuw i8, ptr %8, i64 16
  %10 = load ptr, ptr %9, align 8
  %11 = invoke noundef i32 %10(ptr noundef nonnull align 8 dereferenceable(208) %5, ptr noundef nonnull align 8 dereferenceable(16) %4)
          to label %12 unwind label %31

12:                                               ; preds = %7
  %13 = load ptr, ptr %5, align 8, !tbaa !31
  %14 = getelementptr inbounds nuw i8, ptr %13, i64 32
  %15 = load ptr, ptr %14, align 8
  %16 = invoke noundef i32 %15(ptr noundef nonnull align 8 dereferenceable(208) %5, ptr noundef nonnull align 8 dereferenceable(64) %2)
          to label %17 unwind label %31

17:                                               ; preds = %12
  %18 = load ptr, ptr %5, align 8, !tbaa !31
  %19 = getelementptr inbounds nuw i8, ptr %18, i64 56
  %20 = load ptr, ptr %19, align 8
  %21 = invoke noundef i32 %20(ptr noundef nonnull align 8 dereferenceable(208) %5, ptr noundef nonnull align 8 dereferenceable(72) %0, ptr noundef nonnull align 8 dereferenceable(72) %1, ptr noundef nonnull align 8 dereferenceable(64) %2)
          to label %22 unwind label %31

22:                                               ; preds = %17
  %23 = load ptr, ptr %5, align 8, !tbaa !31
  %24 = getelementptr inbounds nuw i8, ptr %23, i64 40
  %25 = load ptr, ptr %24, align 8
  %26 = invoke noundef i32 %25(ptr noundef nonnull align 8 dereferenceable(208) %5, ptr noundef nonnull align 8 dereferenceable(64) %2)
          to label %27 unwind label %31

27:                                               ; preds = %22
  %28 = load ptr, ptr %5, align 8, !tbaa !31
  %29 = getelementptr inbounds nuw i8, ptr %28, i64 8
  %30 = load ptr, ptr %29, align 8
  call void %30(ptr noundef nonnull align 8 dereferenceable(208) %5) #12
  call void @_ZN4ncnn9ParamDictD1Ev(ptr noundef nonnull align 8 dereferenceable(16) %4) #12
  call void @llvm.lifetime.end.p0(i64 16, ptr nonnull %4) #12
  ret void

31:                                               ; preds = %22, %17, %12, %7, %6, %3
  %32 = landingpad { ptr, i32 }
          cleanup
  call void @_ZN4ncnn9ParamDictD1Ev(ptr noundef nonnull align 8 dereferenceable(16) %4) #12
  call void @llvm.lifetime.end.p0(i64 16, ptr nonnull %4) #12
  resume { ptr, i32 } %32
}